target datalayout = "e-m:e-p270:32:32-p271:32:32-p272:64:64-i64:64-i128:128-f80:128-n8:16:32:64-S128"
target triple = "x86_64-pc-linux-gnu"

; Function Attrs: nounwind uwtable
define internal i32 @uchar_compare(ptr noundef %0, ptr noundef %1) #0 {
  %3 = alloca ptr, align 8
  %4 = alloca ptr, align 8
  store ptr %0, ptr %3, align 8, !tbaa !49
  store ptr %1, ptr %4, align 8, !tbaa !49
  %5 = load ptr, ptr %3, align 8, !tbaa !49
  %6 = load ptr, ptr %5, align 8, !tbaa !51
  %7 = load i8, ptr %6, align 1, !tbaa !44
  %8 = zext i8 %7 to i32
  %9 = load ptr, ptr %4, align 8, !tbaa !49
  %10 = load ptr, ptr %9, align 8, !tbaa !51
  %11 = load i8, ptr %10, align 1, !tbaa !44
  %12 = zext i8 %11 to i32
  %13 = sub nsw i32 %8, %12
  ret i32 %13
}