; Function Attrs: mustprogress nofree norecurse nosync nounwind willreturn memory(read, inaccessiblemem: none) uwtable
define internal range(i32 -255, 256) i32 @uchar_compare(ptr noundef readonly captures(none) %0, ptr noundef readonly captures(none) %1) #3 {
  %3 = load ptr, ptr %0, align 8, !tbaa !39
  %4 = load i8, ptr %3, align 1, !tbaa !33
  %5 = zext i8 %4 to i32
  %6 = load ptr, ptr %1, align 8, !tbaa !39
  %7 = load i8, ptr %6, align 1, !tbaa !33
  %8 = zext i8 %7 to i32
  %9 = sub nsw i32 %5, %8
  ret i32 %9
}